; Function Attrs: mustprogress uwtable
define dso_local { i64, i8 } @_ZN3net18ReliableQuicStream15WritevDataInnerENS_12QuicIOVectorEmbPNS_24QuicAckListenerInterfaceE(ptr noundef nonnull align 8 dereferenceable(377) %this, ptr nocapture noundef readonly byval(%"struct.net::QuicIOVector") align 8 %iov, i64 noundef %offset, i1 noundef zeroext %fin, ptr noundef %ack_notifier_delegate) unnamed_addr #2 align 2 {
entry:
  %session_.i = getelementptr inbounds i8, ptr %this, i64 224
  %0 = load ptr, ptr %session_.i, align 8
  %id_.i = getelementptr inbounds i8, ptr %this, i64 216
  %1 = load i32, ptr %id_.i, align 8
  %vtable = load ptr, ptr %0, align 8
  %vfn = getelementptr inbounds i8, ptr %vtable, i64 160
  %2 = load ptr, ptr %vfn, align 8
  %call3 = tail call { i64, i8 } %2(ptr noundef nonnull align 8 dereferenceable(2044) %0, ptr noundef nonnull %this, i32 noundef %1, ptr noundef nonnull byval(%"struct.net::QuicIOVector") align 8 %iov, i64 noundef %offset, i1 noundef zeroext %fin, ptr noundef %ack_notifier_delegate)
  ret { i64, i8 } %call3
}